target datalayout = "e-m:e-p270:32:32-p271:32:32-p272:64:64-i64:64-i128:128-f80:128-n8:16:32:64-S128"
target triple = "x86_64-pc-linux-gnu"

%struct.exclude_existing_options = type { i32, ptr }
%struct.option = type { i32, i32, ptr, ptr, ptr, ptr, i32, ptr, i64, ptr, i64, ptr }

@.str.27 = private unnamed_addr constant [19 x i8] c"builtin/show-ref.c\00", align 1
@.str.28 = private unnamed_addr constant [41 x i8] c"option callback does not expect negation\00", align 1

; Function Attrs: nounwind uwtable
define internal i32 @exclude_existing_callback(ptr noundef %0, ptr noundef %1, i32 noundef %2) #0 {
  %4 = alloca ptr, align 8
  %5 = alloca ptr, align 8
  %6 = alloca i32, align 4
  %7 = alloca ptr, align 8
  store ptr %0, ptr %4, align 8, !tbaa !31
  store ptr %1, ptr %5, align 8, !tbaa !11
  store i32 %2, ptr %6, align 4, !tbaa !4
  call void @llvm.lifetime.start.p0(i64 8, ptr %7) #10
  %8 = load ptr, ptr %4, align 8, !tbaa !31
  %9 = getelementptr inbounds nuw %struct.option, ptr %8, i32 0, i32 3
  %10 = load ptr, ptr %9, align 8, !tbaa !20
  store ptr %10, ptr %7, align 8, !tbaa !40
  br label %11

11:                                               ; preds = %3
  %12 = load i32, ptr %6, align 4, !tbaa !4
  %13 = icmp ne i32 %12, 0
  br i1 %13, label %14, label %15

14:                                               ; preds = %11
  call void (ptr, i32, ptr, ...) @BUG_fl(ptr noundef @.str.27, i32 noundef 285, ptr noundef @.str.28) #11
  unreachable

15:                                               ; preds = %11
  br label %16

16:                                               ; preds = %15
  br label %17

17:                                               ; preds = %16
  %18 = load ptr, ptr %7, align 8, !tbaa !40
  %19 = getelementptr inbounds nuw %struct.exclude_existing_options, ptr %18, i32 0, i32 0
  store i32 1, ptr %19, align 8, !tbaa !29
  %20 = load ptr, ptr %5, align 8, !tbaa !11
  %21 = load ptr, ptr %7, align 8, !tbaa !40
  %22 = getelementptr inbounds nuw %struct.exclude_existing_options, ptr %21, i32 0, i32 1
  store ptr %20, ptr %22, align 8, !tbaa !42
  call void @llvm.lifetime.end.p0(i64 8, ptr %7) #10
  ret i32 0
}