; Function Attrs: nounwind uwtable
define internal noundef i32 @exclude_existing_callback(ptr noundef readonly captures(none) %0, ptr noundef %1, i32 noundef %2) #0 {
  %.not = icmp eq i32 %2, 0
  br i1 %.not, label %5, label %4

4:                                                ; preds = %3
  tail call void (ptr, i32, ptr, ...) @BUG_fl(ptr noundef nonnull @.str.27, i32 noundef 285, ptr noundef nonnull @.str.28) #14
  unreachable

5:                                                ; preds = %3
  %6 = getelementptr inbounds nuw i8, ptr %0, i64 16
  %7 = load ptr, ptr %6, align 8, !tbaa !15
  store i32 1, ptr %7, align 8, !tbaa !23
  %8 = getelementptr inbounds nuw i8, ptr %7, i64 8
  store ptr %1, ptr %8, align 8, !tbaa !25
  ret i32 0
}